; Function Attrs: mustprogress uwtable
define dso_local void @_ZN7doctest8toStringERKNS_8ContainsE(ptr dead_on_unwind noalias writable writeonly sret(%"class.doctest::String") align 8 captures(none) %0, ptr noundef nonnull readonly align 8 captures(none) dereferenceable(24) %1) local_unnamed_addr #8 personality ptr @__gxx_personality_v0 {
_ZN7doctest6StringC2EPKc.exit:
  %2 = alloca %"class.doctest::String", align 8
  %3 = alloca %"class.doctest::String", align 8
  %4 = alloca %"class.doctest::String", align 8
  call void @llvm.lifetime.start.p0(i64 24, ptr nonnull %2) #49
  call void @llvm.lifetime.start.p0(i64 24, ptr nonnull %3) #49
  %5 = getelementptr inbounds nuw i8, ptr %3, i64 10
  store i8 0, ptr %5, align 2, !tbaa !38
  %6 = getelementptr inbounds nuw i8, ptr %3, i64 23
  store i8 13, ptr %6, align 1, !tbaa !38
  call void @llvm.memcpy.p0.p0.i64(ptr noundef nonnull align 8 dereferenceable(10) %3, ptr noundef nonnull readonly align 1 dereferenceable(10) @.str.3, i64 10, i1 false)
  call void @_ZN7doctestplERKNS_6StringES2_(ptr dead_on_unwind nonnull writable sret(%"class.doctest::String") align 8 %2, ptr noundef nonnull align 8 dereferenceable(24) %3, ptr noundef nonnull align 8 dereferenceable(24) %1)
  call void @llvm.lifetime.start.p0(i64 24, ptr nonnull %4) #49
  %7 = getelementptr inbounds nuw i8, ptr %4, i64 2
  store i8 0, ptr %7, align 2, !tbaa !38
  %8 = getelementptr inbounds nuw i8, ptr %4, i64 23
  store i8 21, ptr %8, align 1, !tbaa !38
  store i16 10528, ptr %4, align 8
  invoke void @_ZN7doctestplERKNS_6StringES2_(ptr dead_on_unwind writable sret(%"class.doctest::String") align 8 %0, ptr noundef nonnull align 8 dereferenceable(24) %2, ptr noundef nonnull align 8 dereferenceable(24) %4)
          to label %_ZN7doctest6StringD2Ev.exit unwind label %_ZN7doctest6StringD2Ev.exit11

_ZN7doctest6StringD2Ev.exit:                      ; preds = %_ZN7doctest6StringC2EPKc.exit
  call void @llvm.lifetime.end.p0(i64 24, ptr nonnull %4) #49
  %9 = getelementptr inbounds nuw i8, ptr %2, i64 23
  %10 = load i8, ptr %9, align 1, !tbaa !38
  %11 = icmp sgt i8 %10, -1
  br i1 %11, label %_ZN7doctest6StringD2Ev.exit10, label %12

12:                                               ; preds = %_ZN7doctest6StringD2Ev.exit
  %13 = load ptr, ptr %2, align 8, !tbaa !38
  %14 = icmp eq ptr %13, null
  br i1 %14, label %_ZN7doctest6StringD2Ev.exit10, label %15

15:                                               ; preds = %12
  tail call void @_ZdaPv(ptr noundef nonnull %13) #48
  br label %_ZN7doctest6StringD2Ev.exit10

_ZN7doctest6StringD2Ev.exit10:                    ; preds = %15, %12, %_ZN7doctest6StringD2Ev.exit
  call void @llvm.lifetime.end.p0(i64 24, ptr nonnull %3) #49
  call void @llvm.lifetime.end.p0(i64 24, ptr nonnull %2) #49
  ret void

_ZN7doctest6StringD2Ev.exit11:                    ; preds = %_ZN7doctest6StringC2EPKc.exit
  %16 = landingpad { ptr, i32 }
          cleanup
  call void @llvm.lifetime.end.p0(i64 24, ptr nonnull %4) #49
  %17 = getelementptr inbounds nuw i8, ptr %2, i64 23
  %18 = load i8, ptr %17, align 1, !tbaa !38
  %19 = icmp sgt i8 %18, -1
  br i1 %19, label %_ZN7doctest6StringD2Ev.exit13, label %20

20:                                               ; preds = %_ZN7doctest6StringD2Ev.exit11
  %21 = load ptr, ptr %2, align 8, !tbaa !38
  %22 = icmp eq ptr %21, null
  br i1 %22, label %_ZN7doctest6StringD2Ev.exit13, label %23

23:                                               ; preds = %20
  tail call void @_ZdaPv(ptr noundef nonnull %21) #48
  br label %_ZN7doctest6StringD2Ev.exit13

_ZN7doctest6StringD2Ev.exit13:                    ; preds = %_ZN7doctest6StringD2Ev.exit11, %20, %23
  call void @llvm.lifetime.end.p0(i64 24, ptr nonnull %3) #49
  call void @llvm.lifetime.end.p0(i64 24, ptr nonnull %2) #49
  resume { ptr, i32 } %16
}